; Function Attrs: mustprogress nounwind uwtable
define dso_local noundef zeroext i1 @_ZNK4llvm11GlobPattern5matchENS_9StringRefE(ptr noundef nonnull align 8 dereferenceable(72) %0, ptr %1, i64 %2) local_unnamed_addr #0 align 2 {
  %.sroa.07.0.copyload = load ptr, ptr %0, align 8
  %.sroa.28.0..sroa_idx = getelementptr inbounds i8, ptr %0, i64 8
  %.sroa.28.0.copyload = load i64, ptr %.sroa.28.0..sroa_idx, align 8
  %.not.i.i = icmp ult i64 %2, %.sroa.28.0.copyload
  br i1 %.not.i.i, label %_ZN4llvm9StringRef13consume_frontES0_.exit.thread, label %4

4:                                                ; preds = %3
  %5 = icmp eq i64 %.sroa.28.0.copyload, 0
  br i1 %5, label %7, label %_ZNK4llvm9StringRef11starts_withES0_.exit.i

_ZNK4llvm9StringRef11starts_withES0_.exit.i:      ; preds = %4
  %bcmp.i.i = tail call i32 @bcmp(ptr %1, ptr %.sroa.07.0.copyload, i64 %.sroa.28.0.copyload)
  %6 = icmp eq i32 %bcmp.i.i, 0
  br i1 %6, label %7, label %_ZN4llvm9StringRef13consume_frontES0_.exit.thread

7:                                                ; preds = %_ZNK4llvm9StringRef11starts_withES0_.exit.i, %4
  %8 = getelementptr inbounds i8, ptr %1, i64 %.sroa.28.0.copyload
  %9 = sub i64 %2, %.sroa.28.0.copyload
  %10 = getelementptr inbounds nuw i8, ptr %0, i64 16
  %11 = tail call noundef zeroext i1 @_ZNK4llvm15SmallVectorBaseIjE5emptyEv(ptr noundef nonnull align 8 dereferenceable(16) %10) #13
  %12 = icmp eq i64 %2, %.sroa.28.0.copyload
  %or.cond = and i1 %12, %11
  br i1 %or.cond, label %_ZN4llvm9StringRef13consume_frontES0_.exit.thread, label %13

13:                                               ; preds = %7
  %14 = load ptr, ptr %10, align 8
  %15 = tail call noundef i64 @_ZNK4llvm15SmallVectorBaseIjE4sizeEv(ptr noundef nonnull align 8 dereferenceable(16) %10) #13
  %16 = getelementptr inbounds %"struct.llvm::GlobPattern::SubGlobPattern", ptr %14, i64 %15
  %.not16 = icmp eq i64 %15, 0
  br i1 %.not16, label %_ZN4llvm9StringRef13consume_frontES0_.exit.thread, label %.lr.ph

.lr.ph:                                           ; preds = %13, %.lr.ph
  %.01117 = phi ptr [ %18, %.lr.ph ], [ %14, %13 ]
  %17 = tail call noundef zeroext i1 @_ZNK4llvm11GlobPattern14SubGlobPattern5matchENS_9StringRefE(ptr noundef nonnull align 8 dereferenceable(40) %.01117, ptr %8, i64 %9)
  %18 = getelementptr inbounds i8, ptr %.01117, i64 40
  %.not = icmp eq ptr %18, %16
  %or.cond20 = select i1 %17, i1 true, i1 %.not
  br i1 %or.cond20, label %_ZN4llvm9StringRef13consume_frontES0_.exit.thread, label %.lr.ph

_ZN4llvm9StringRef13consume_frontES0_.exit.thread: ; preds = %.lr.ph, %13, %7, %3, %_ZNK4llvm9StringRef11starts_withES0_.exit.i
  %.0 = phi i1 [ false, %_ZNK4llvm9StringRef11starts_withES0_.exit.i ], [ false, %3 ], [ true, %7 ], [ false, %13 ], [ %17, %.lr.ph ]
  ret i1 %.0
}